target datalayout = "e-m:e-p270:32:32-p271:32:32-p272:64:64-i64:64-i128:128-f80:128-n8:16:32:64-S128"
target triple = "x86_64-pc-linux-gnu"

%"class.std::__cxx11::basic_string" = type { %"struct.std::__cxx11::basic_string<char>::_Alloc_hider", i64, %union.anon }
%"struct.std::__cxx11::basic_string<char>::_Alloc_hider" = type { ptr }
%union.anon = type { i64, [8 x i8] }
%class.cmCTestLaunch = type <{ %"class.std::vector", %"class.std::vector", i8, i8, i8, [5 x i8], %class.cmCTestLaunchReporter, i32, [4 x i8] }>
%"class.std::vector" = type { %"struct.std::_Vector_base" }
%"struct.std::_Vector_base" = type { %"struct.std::_Vector_base<std::__cxx11::basic_string<char>, std::allocator<std::__cxx11::basic_string<char>>>::_Vector_impl" }
%"struct.std::_Vector_base<std::__cxx11::basic_string<char>, std::allocator<std::__cxx11::basic_string<char>>>::_Vector_impl" = type { %"struct.std::_Vector_base<std::__cxx11::basic_string<char>, std::allocator<std::__cxx11::basic_string<char>>>::_Vector_impl_data" }
%"struct.std::_Vector_base<std::__cxx11::basic_string<char>, std::allocator<std::__cxx11::basic_string<char>>>::_Vector_impl_data" = type { ptr, ptr, ptr }
%class.cmCTestLaunchReporter = type { %"class.std::__cxx11::basic_string", %"class.std::__cxx11::basic_string", %"class.std::__cxx11::basic_string", %"class.std::__cxx11::basic_string", %"class.std::__cxx11::basic_string", %"class.std::__cxx11::basic_string", %"class.std::__cxx11::basic_string", %"class.std::__cxx11::basic_string", %"class.std::__cxx11::basic_string", %"class.std::__cxx11::basic_string", %"class.std::__cxx11::basic_string", %"class.std::vector", %"class.std::__cxx11::basic_string", i8, %"struct.cmUVProcessChain::Status", i32, %"class.std::__cxx11::basic_string", %"class.std::__cxx11::basic_string", %"class.std::__cxx11::basic_string", %"class.std::set", %"class.std::vector.6", %"class.std::vector.6", %"class.std::__cxx11::basic_string" }
%"struct.cmUVProcessChain::Status" = type { i32, i8, i64, i32 }
%"class.std::set" = type { %"class.std::_Rb_tree" }
%"class.std::_Rb_tree" = type { %"struct.std::_Rb_tree<std::__cxx11::basic_string<char>, std::__cxx11::basic_string<char>, std::_Identity<std::__cxx11::basic_string<char>>, std::less<std::__cxx11::basic_string<char>>>::_Rb_tree_impl" }
%"struct.std::_Rb_tree<std::__cxx11::basic_string<char>, std::__cxx11::basic_string<char>, std::_Identity<std::__cxx11::basic_string<char>>, std::less<std::__cxx11::basic_string<char>>>::_Rb_tree_impl" = type { [8 x i8], %"struct.std::_Rb_tree_header" }
%"struct.std::_Rb_tree_header" = type { %"struct.std::_Rb_tree_node_base", i64 }
%"struct.std::_Rb_tree_node_base" = type { i32, ptr, ptr, ptr }
%"class.std::vector.6" = type { %"struct.std::_Vector_base.7" }
%"struct.std::_Vector_base.7" = type { %"struct.std::_Vector_base<cmsys::RegularExpression, std::allocator<cmsys::RegularExpression>>::_Vector_impl" }
%"struct.std::_Vector_base<cmsys::RegularExpression, std::allocator<cmsys::RegularExpression>>::_Vector_impl" = type { %"struct.std::_Vector_base<cmsys::RegularExpression, std::allocator<cmsys::RegularExpression>>::_Vector_impl_data" }
%"struct.std::_Vector_base<cmsys::RegularExpression, std::allocator<cmsys::RegularExpression>>::_Vector_impl_data" = type { ptr, ptr, ptr }

; Function Attrs: mustprogress uwtable
define dso_local noundef zeroext i1 @_ZN13cmCTestLaunch12CheckResultsEv(ptr noundef nonnull align 8 dereferenceable(732) %0) #5 align 2 {
  %2 = alloca i1, align 1
  %3 = alloca ptr, align 8
  store ptr %0, ptr %3, align 8, !tbaa !20
  %4 = load ptr, ptr %3, align 8
  %5 = getelementptr inbounds nuw %class.cmCTestLaunch, ptr %4, i32 0, i32 6
  %6 = getelementptr inbounds nuw %class.cmCTestLaunchReporter, ptr %5, i32 0, i32 13
  %7 = load i8, ptr %6, align 8, !tbaa !72, !range !73, !noundef !74
  %8 = trunc i8 %7 to i1
  br i1 %8, label %9, label %10

9:                                                ; preds = %1
  store i1 true, ptr %2, align 1
  br label %32

10:                                               ; preds = %1
  %11 = getelementptr inbounds nuw %class.cmCTestLaunch, ptr %4, i32 0, i32 6
  %12 = call noundef zeroext i1 @_ZNK21cmCTestLaunchReporter7IsErrorEv(ptr noundef nonnull align 8 dereferenceable(672) %11)
  br i1 %12, label %13, label %14

13:                                               ; preds = %10
  store i1 false, ptr %2, align 1
  br label %32

14:                                               ; preds = %10
  %15 = getelementptr inbounds nuw %class.cmCTestLaunch, ptr %4, i32 0, i32 3
  %16 = load i8, ptr %15, align 1, !tbaa !55, !range !73, !noundef !74
  %17 = trunc i8 %16 to i1
  br i1 %17, label %18, label %22

18:                                               ; preds = %14
  %19 = getelementptr inbounds nuw %class.cmCTestLaunch, ptr %4, i32 0, i32 6
  %20 = getelementptr inbounds nuw %class.cmCTestLaunchReporter, ptr %19, i32 0, i32 18
  %21 = call noundef zeroext i1 @_ZN13cmCTestLaunch9ScrapeLogERKNSt7__cxx1112basic_stringIcSt11char_traitsIcESaIcEEE(ptr noundef nonnull align 8 dereferenceable(732) %4, ptr noundef nonnull align 8 dereferenceable(32) %20)
  br i1 %21, label %30, label %22

22:                                               ; preds = %18, %14
  %23 = getelementptr inbounds nuw %class.cmCTestLaunch, ptr %4, i32 0, i32 2
  %24 = load i8, ptr %23, align 8, !tbaa !54, !range !73, !noundef !74
  %25 = trunc i8 %24 to i1
  br i1 %25, label %26, label %31

26:                                               ; preds = %22
  %27 = getelementptr inbounds nuw %class.cmCTestLaunch, ptr %4, i32 0, i32 6
  %28 = getelementptr inbounds nuw %class.cmCTestLaunchReporter, ptr %27, i32 0, i32 17
  %29 = call noundef zeroext i1 @_ZN13cmCTestLaunch9ScrapeLogERKNSt7__cxx1112basic_stringIcSt11char_traitsIcESaIcEEE(ptr noundef nonnull align 8 dereferenceable(732) %4, ptr noundef nonnull align 8 dereferenceable(32) %28)
  br i1 %29, label %30, label %31

30:                                               ; preds = %26, %18
  store i1 false, ptr %2, align 1
  br label %32

31:                                               ; preds = %26, %22
  store i1 true, ptr %2, align 1
  br label %32

32:                                               ; preds = %31, %30, %13, %9
  %33 = load i1, ptr %2, align 1
  ret i1 %33
}