; Function Attrs: mustprogress uwtable
define dso_local noundef zeroext i1 @_ZN13cmCTestLaunch12CheckResultsEv(ptr noundef nonnull align 8 dereferenceable(732) %0) local_unnamed_addr #5 align 2 {
  %2 = getelementptr inbounds nuw i8, ptr %0, i64 464
  %3 = load i8, ptr %2, align 8, !tbaa !58, !range !59, !noundef !60
  %4 = trunc nuw i8 %3 to i1
  br i1 %4, label %23, label %5

5:                                                ; preds = %1
  %6 = getelementptr inbounds nuw i8, ptr %0, i64 56
  %7 = tail call noundef zeroext i1 @_ZNK21cmCTestLaunchReporter7IsErrorEv(ptr noundef nonnull align 8 dereferenceable(672) %6)
  br i1 %7, label %23, label %8

8:                                                ; preds = %5
  %9 = getelementptr inbounds nuw i8, ptr %0, i64 49
  %10 = load i8, ptr %9, align 1, !tbaa !38, !range !59, !noundef !60
  %11 = trunc nuw i8 %10 to i1
  br i1 %11, label %12, label %15

12:                                               ; preds = %8
  %13 = getelementptr inbounds nuw i8, ptr %0, i64 568
  %14 = tail call noundef zeroext i1 @_ZN13cmCTestLaunch9ScrapeLogERKNSt7__cxx1112basic_stringIcSt11char_traitsIcESaIcEEE(ptr noundef nonnull align 8 dereferenceable(732) %0, ptr noundef nonnull align 8 dereferenceable(32) %13)
  br i1 %14, label %23, label %15

15:                                               ; preds = %12, %8
  %16 = getelementptr inbounds nuw i8, ptr %0, i64 48
  %17 = load i8, ptr %16, align 8, !tbaa !37, !range !59, !noundef !60
  %18 = trunc nuw i8 %17 to i1
  br i1 %18, label %19, label %22

19:                                               ; preds = %15
  %20 = getelementptr inbounds nuw i8, ptr %0, i64 536
  %21 = tail call noundef zeroext i1 @_ZN13cmCTestLaunch9ScrapeLogERKNSt7__cxx1112basic_stringIcSt11char_traitsIcESaIcEEE(ptr noundef nonnull align 8 dereferenceable(732) %0, ptr noundef nonnull align 8 dereferenceable(32) %20)
  br i1 %21, label %23, label %22

22:                                               ; preds = %19, %15
  br label %23

23:                                               ; preds = %12, %19, %5, %1, %22
  %.0 = phi i1 [ true, %22 ], [ true, %1 ], [ false, %5 ], [ false, %19 ], [ false, %12 ]
  ret i1 %.0
}